target datalayout = "e-m:e-p270:32:32-p271:32:32-p272:64:64-i64:64-i128:128-f80:128-n8:16:32:64-S128"
target triple = "x86_64-pc-linux-gnu"

%struct._snmp_ue_assoc_t = type { %struct._snmp_user_t, %struct.snmp_engine_id_t, i32, i32, ptr }
%struct._snmp_user_t = type { %struct._snmp_usm_key, i32, %struct._snmp_usm_key, %struct._snmp_usm_key, ptr, %struct._snmp_usm_key, %struct._snmp_usm_key }
%struct._snmp_usm_key = type { ptr, i32 }
%struct.snmp_engine_id_t = type { ptr, i32 }

@auth_hash_len = internal constant [6 x i32] [i32 16, i32 20, i32 28, i32 32, i32 48, i32 64], align 16

; Function Attrs: nounwind uwtable
define internal void @set_ue_keys(ptr noundef %0) #0 {
  %2 = alloca ptr, align 8
  %3 = alloca i32, align 4
  %4 = alloca i32, align 4
  %5 = alloca i32, align 4
  store ptr %0, ptr %2, align 8
  %6 = load ptr, ptr %2, align 8
  %7 = getelementptr inbounds %struct._snmp_ue_assoc_t, ptr %6, i32 0, i32 0
  %8 = getelementptr inbounds %struct._snmp_user_t, ptr %7, i32 0, i32 1
  %9 = load i32, ptr %8, align 8
  %10 = zext i32 %9 to i64
  %11 = getelementptr [6 x i32], ptr @auth_hash_len, i64 0, i64 %10
  %12 = load i32, ptr %11, align 4
  store i32 %12, ptr %3, align 4
  %13 = load i32, ptr %3, align 4
  %14 = zext i32 %13 to i64
  %15 = call noalias ptr @g_malloc(i64 noundef %14) #10
  %16 = load ptr, ptr %2, align 8
  %17 = getelementptr inbounds %struct._snmp_ue_assoc_t, ptr %16, i32 0, i32 0
  %18 = getelementptr inbounds %struct._snmp_user_t, ptr %17, i32 0, i32 3
  %19 = getelementptr inbounds %struct._snmp_usm_key, ptr %18, i32 0, i32 0
  store ptr %15, ptr %19, align 8
  %20 = load i32, ptr %3, align 4
  %21 = load ptr, ptr %2, align 8
  %22 = getelementptr inbounds %struct._snmp_ue_assoc_t, ptr %21, i32 0, i32 0
  %23 = getelementptr inbounds %struct._snmp_user_t, ptr %22, i32 0, i32 3
  %24 = getelementptr inbounds %struct._snmp_usm_key, ptr %23, i32 0, i32 1
  store i32 %20, ptr %24, align 8
  %25 = load ptr, ptr %2, align 8
  %26 = getelementptr inbounds %struct._snmp_ue_assoc_t, ptr %25, i32 0, i32 0
  %27 = getelementptr inbounds %struct._snmp_user_t, ptr %26, i32 0, i32 1
  %28 = load i32, ptr %27, align 8
  %29 = load ptr, ptr %2, align 8
  %30 = getelementptr inbounds %struct._snmp_ue_assoc_t, ptr %29, i32 0, i32 0
  %31 = getelementptr inbounds %struct._snmp_user_t, ptr %30, i32 0, i32 2
  %32 = getelementptr inbounds %struct._snmp_usm_key, ptr %31, i32 0, i32 0
  %33 = load ptr, ptr %32, align 8
  %34 = load ptr, ptr %2, align 8
  %35 = getelementptr inbounds %struct._snmp_ue_assoc_t, ptr %34, i32 0, i32 0
  %36 = getelementptr inbounds %struct._snmp_user_t, ptr %35, i32 0, i32 2
  %37 = getelementptr inbounds %struct._snmp_usm_key, ptr %36, i32 0, i32 1
  %38 = load i32, ptr %37, align 8
  %39 = load ptr, ptr %2, align 8
  %40 = getelementptr inbounds %struct._snmp_ue_assoc_t, ptr %39, i32 0, i32 1
  %41 = getelementptr inbounds %struct.snmp_engine_id_t, ptr %40, i32 0, i32 0
  %42 = load ptr, ptr %41, align 8
  %43 = load ptr, ptr %2, align 8
  %44 = getelementptr inbounds %struct._snmp_ue_assoc_t, ptr %43, i32 0, i32 1
  %45 = getelementptr inbounds %struct.snmp_engine_id_t, ptr %44, i32 0, i32 1
  %46 = load i32, ptr %45, align 8
  %47 = load ptr, ptr %2, align 8
  %48 = getelementptr inbounds %struct._snmp_ue_assoc_t, ptr %47, i32 0, i32 0
  %49 = getelementptr inbounds %struct._snmp_user_t, ptr %48, i32 0, i32 3
  %50 = getelementptr inbounds %struct._snmp_usm_key, ptr %49, i32 0, i32 0
  %51 = load ptr, ptr %50, align 8
  call void @snmp_usm_password_to_key(i32 noundef %28, ptr noundef %33, i32 noundef %38, ptr noundef %42, i32 noundef %46, ptr noundef %51)
  %52 = load ptr, ptr %2, align 8
  %53 = getelementptr inbounds %struct._snmp_ue_assoc_t, ptr %52, i32 0, i32 3
  %54 = load i32, ptr %53, align 4
  %55 = icmp eq i32 %54, 1
  br i1 %55, label %66, label %56

56:                                               ; preds = %1
  %57 = load ptr, ptr %2, align 8
  %58 = getelementptr inbounds %struct._snmp_ue_assoc_t, ptr %57, i32 0, i32 3
  %59 = load i32, ptr %58, align 4
  %60 = icmp eq i32 %59, 2
  br i1 %60, label %66, label %61

61:                                               ; preds = %56
  %62 = load ptr, ptr %2, align 8
  %63 = getelementptr inbounds %struct._snmp_ue_assoc_t, ptr %62, i32 0, i32 3
  %64 = load i32, ptr %63, align 4
  %65 = icmp eq i32 %64, 3
  br i1 %65, label %66, label %173

66:                                               ; preds = %61, %56, %1
  %67 = load ptr, ptr %2, align 8
  %68 = getelementptr inbounds %struct._snmp_ue_assoc_t, ptr %67, i32 0, i32 3
  %69 = load i32, ptr %68, align 4
  %70 = icmp eq i32 %69, 1
  br i1 %70, label %71, label %72

71:                                               ; preds = %66
  br label %86

72:                                               ; preds = %66
  %73 = load ptr, ptr %2, align 8
  %74 = getelementptr inbounds %struct._snmp_ue_assoc_t, ptr %73, i32 0, i32 3
  %75 = load i32, ptr %74, align 4
  %76 = icmp eq i32 %75, 2
  br i1 %76, label %77, label %78

77:                                               ; preds = %72
  br label %84

78:                                               ; preds = %72
  %79 = load ptr, ptr %2, align 8
  %80 = getelementptr inbounds %struct._snmp_ue_assoc_t, ptr %79, i32 0, i32 3
  %81 = load i32, ptr %80, align 4
  %82 = icmp eq i32 %81, 3
  %83 = select i1 %82, i32 32, i32 0
  br label %84

84:                                               ; preds = %78, %77
  %85 = phi i32 [ 24, %77 ], [ %83, %78 ]
  br label %86

86:                                               ; preds = %84, %71
  %87 = phi i32 [ 16, %71 ], [ %85, %84 ]
  store i32 %87, ptr %4, align 4
  %88 = load i32, ptr %3, align 4
  store i32 %88, ptr %5, align 4
  br label %89

89:                                               ; preds = %93, %86
  %90 = load i32, ptr %5, align 4
  %91 = load i32, ptr %4, align 4
  %92 = icmp ult i32 %90, %91
  br i1 %92, label %93, label %97

93:                                               ; preds = %89
  %94 = load i32, ptr %3, align 4
  %95 = load i32, ptr %5, align 4
  %96 = add i32 %95, %94
  store i32 %96, ptr %5, align 4
  br label %89, !llvm.loop !20

97:                                               ; preds = %89
  %98 = load i32, ptr %5, align 4
  %99 = zext i32 %98 to i64
  %100 = call noalias ptr @g_malloc(i64 noundef %99) #10
  %101 = load ptr, ptr %2, align 8
  %102 = getelementptr inbounds %struct._snmp_ue_assoc_t, ptr %101, i32 0, i32 0
  %103 = getelementptr inbounds %struct._snmp_user_t, ptr %102, i32 0, i32 6
  %104 = getelementptr inbounds %struct._snmp_usm_key, ptr %103, i32 0, i32 0
  store ptr %100, ptr %104, align 8
  %105 = load i32, ptr %4, align 4
  %106 = load ptr, ptr %2, align 8
  %107 = getelementptr inbounds %struct._snmp_ue_assoc_t, ptr %106, i32 0, i32 0
  %108 = getelementptr inbounds %struct._snmp_user_t, ptr %107, i32 0, i32 6
  %109 = getelementptr inbounds %struct._snmp_usm_key, ptr %108, i32 0, i32 1
  store i32 %105, ptr %109, align 8
  %110 = load ptr, ptr %2, align 8
  %111 = getelementptr inbounds %struct._snmp_ue_assoc_t, ptr %110, i32 0, i32 0
  %112 = getelementptr inbounds %struct._snmp_user_t, ptr %111, i32 0, i32 1
  %113 = load i32, ptr %112, align 8
  %114 = load ptr, ptr %2, align 8
  %115 = getelementptr inbounds %struct._snmp_ue_assoc_t, ptr %114, i32 0, i32 0
  %116 = getelementptr inbounds %struct._snmp_user_t, ptr %115, i32 0, i32 5
  %117 = getelementptr inbounds %struct._snmp_usm_key, ptr %116, i32 0, i32 0
  %118 = load ptr, ptr %117, align 8
  %119 = load ptr, ptr %2, align 8
  %120 = getelementptr inbounds %struct._snmp_ue_assoc_t, ptr %119, i32 0, i32 0
  %121 = getelementptr inbounds %struct._snmp_user_t, ptr %120, i32 0, i32 5
  %122 = getelementptr inbounds %struct._snmp_usm_key, ptr %121, i32 0, i32 1
  %123 = load i32, ptr %122, align 8
  %124 = load ptr, ptr %2, align 8
  %125 = getelementptr inbounds %struct._snmp_ue_assoc_t, ptr %124, i32 0, i32 1
  %126 = getelementptr inbounds %struct.snmp_engine_id_t, ptr %125, i32 0, i32 0
  %127 = load ptr, ptr %126, align 8
  %128 = load ptr, ptr %2, align 8
  %129 = getelementptr inbounds %struct._snmp_ue_assoc_t, ptr %128, i32 0, i32 1
  %130 = getelementptr inbounds %struct.snmp_engine_id_t, ptr %129, i32 0, i32 1
  %131 = load i32, ptr %130, align 8
  %132 = load ptr, ptr %2, align 8
  %133 = getelementptr inbounds %struct._snmp_ue_assoc_t, ptr %132, i32 0, i32 0
  %134 = getelementptr inbounds %struct._snmp_user_t, ptr %133, i32 0, i32 6
  %135 = getelementptr inbounds %struct._snmp_usm_key, ptr %134, i32 0, i32 0
  %136 = load ptr, ptr %135, align 8
  call void @snmp_usm_password_to_key(i32 noundef %113, ptr noundef %118, i32 noundef %123, ptr noundef %127, i32 noundef %131, ptr noundef %136)
  %137 = load i32, ptr %3, align 4
  store i32 %137, ptr %5, align 4
  br label %138

138:                                              ; preds = %142, %97
  %139 = load i32, ptr %5, align 4
  %140 = load i32, ptr %4, align 4
  %141 = icmp ult i32 %139, %140
  br i1 %141, label %142, label %172

142:                                              ; preds = %138
  %143 = load ptr, ptr %2, align 8
  %144 = getelementptr inbounds %struct._snmp_ue_assoc_t, ptr %143, i32 0, i32 0
  %145 = getelementptr inbounds %struct._snmp_user_t, ptr %144, i32 0, i32 1
  %146 = load i32, ptr %145, align 8
  %147 = load ptr, ptr %2, align 8
  %148 = getelementptr inbounds %struct._snmp_ue_assoc_t, ptr %147, i32 0, i32 0
  %149 = getelementptr inbounds %struct._snmp_user_t, ptr %148, i32 0, i32 6
  %150 = getelementptr inbounds %struct._snmp_usm_key, ptr %149, i32 0, i32 0
  %151 = load ptr, ptr %150, align 8
  %152 = load i32, ptr %5, align 4
  %153 = load ptr, ptr %2, align 8
  %154 = getelementptr inbounds %struct._snmp_ue_assoc_t, ptr %153, i32 0, i32 1
  %155 = getelementptr inbounds %struct.snmp_engine_id_t, ptr %154, i32 0, i32 0
  %156 = load ptr, ptr %155, align 8
  %157 = load ptr, ptr %2, align 8
  %158 = getelementptr inbounds %struct._snmp_ue_assoc_t, ptr %157, i32 0, i32 1
  %159 = getelementptr inbounds %struct.snmp_engine_id_t, ptr %158, i32 0, i32 1
  %160 = load i32, ptr %159, align 8
  %161 = load ptr, ptr %2, align 8
  %162 = getelementptr inbounds %struct._snmp_ue_assoc_t, ptr %161, i32 0, i32 0
  %163 = getelementptr inbounds %struct._snmp_user_t, ptr %162, i32 0, i32 6
  %164 = getelementptr inbounds %struct._snmp_usm_key, ptr %163, i32 0, i32 0
  %165 = load ptr, ptr %164, align 8
  %166 = load i32, ptr %5, align 4
  %167 = zext i32 %166 to i64
  %168 = getelementptr i8, ptr %165, i64 %167
  call void @snmp_usm_password_to_key(i32 noundef %146, ptr noundef %151, i32 noundef %152, ptr noundef %156, i32 noundef %160, ptr noundef %168)
  %169 = load i32, ptr %3, align 4
  %170 = load i32, ptr %5, align 4
  %171 = add i32 %170, %169
  store i32 %171, ptr %5, align 4
  br label %138, !llvm.loop !21

172:                                              ; preds = %138
  br label %213

173:                                              ; preds = %61
  %174 = load i32, ptr %3, align 4
  %175 = zext i32 %174 to i64
  %176 = call noalias ptr @g_malloc(i64 noundef %175) #10
  %177 = load ptr, ptr %2, align 8
  %178 = getelementptr inbounds %struct._snmp_ue_assoc_t, ptr %177, i32 0, i32 0
  %179 = getelementptr inbounds %struct._snmp_user_t, ptr %178, i32 0, i32 6
  %180 = getelementptr inbounds %struct._snmp_usm_key, ptr %179, i32 0, i32 0
  store ptr %176, ptr %180, align 8
  %181 = load i32, ptr %3, align 4
  %182 = load ptr, ptr %2, align 8
  %183 = getelementptr inbounds %struct._snmp_ue_assoc_t, ptr %182, i32 0, i32 0
  %184 = getelementptr inbounds %struct._snmp_user_t, ptr %183, i32 0, i32 6
  %185 = getelementptr inbounds %struct._snmp_usm_key, ptr %184, i32 0, i32 1
  store i32 %181, ptr %185, align 8
  %186 = load ptr, ptr %2, align 8
  %187 = getelementptr inbounds %struct._snmp_ue_assoc_t, ptr %186, i32 0, i32 0
  %188 = getelementptr inbounds %struct._snmp_user_t, ptr %187, i32 0, i32 1
  %189 = load i32, ptr %188, align 8
  %190 = load ptr, ptr %2, align 8
  %191 = getelementptr inbounds %struct._snmp_ue_assoc_t, ptr %190, i32 0, i32 0
  %192 = getelementptr inbounds %struct._snmp_user_t, ptr %191, i32 0, i32 5
  %193 = getelementptr inbounds %struct._snmp_usm_key, ptr %192, i32 0, i32 0
  %194 = load ptr, ptr %193, align 8
  %195 = load ptr, ptr %2, align 8
  %196 = getelementptr inbounds %struct._snmp_ue_assoc_t, ptr %195, i32 0, i32 0
  %197 = getelementptr inbounds %struct._snmp_user_t, ptr %196, i32 0, i32 5
  %198 = getelementptr inbounds %struct._snmp_usm_key, ptr %197, i32 0, i32 1
  %199 = load i32, ptr %198, align 8
  %200 = load ptr, ptr %2, align 8
  %201 = getelementptr inbounds %struct._snmp_ue_assoc_t, ptr %200, i32 0, i32 1
  %202 = getelementptr inbounds %struct.snmp_engine_id_t, ptr %201, i32 0, i32 0
  %203 = load ptr, ptr %202, align 8
  %204 = load ptr, ptr %2, align 8
  %205 = getelementptr inbounds %struct._snmp_ue_assoc_t, ptr %204, i32 0, i32 1
  %206 = getelementptr inbounds %struct.snmp_engine_id_t, ptr %205, i32 0, i32 1
  %207 = load i32, ptr %206, align 8
  %208 = load ptr, ptr %2, align 8
  %209 = getelementptr inbounds %struct._snmp_ue_assoc_t, ptr %208, i32 0, i32 0
  %210 = getelementptr inbounds %struct._snmp_user_t, ptr %209, i32 0, i32 6
  %211 = getelementptr inbounds %struct._snmp_usm_key, ptr %210, i32 0, i32 0
  %212 = load ptr, ptr %211, align 8
  call void @snmp_usm_password_to_key(i32 noundef %189, ptr noundef %194, i32 noundef %199, ptr noundef %203, i32 noundef %207, ptr noundef %212)
  br label %213

213:                                              ; preds = %173, %172
  ret void
}