; Function Attrs: nounwind uwtable
define internal fastcc void @set_ue_keys(ptr noundef captures(none) initializes((40, 52)) %0) unnamed_addr #0 {
  %2 = getelementptr inbounds nuw i8, ptr %0, i64 16
  %3 = load i32, ptr %2, align 8
  %4 = zext i32 %3 to i64
  %5 = getelementptr [6 x i32], ptr @auth_hash_len, i64 0, i64 %4
  %6 = load i32, ptr %5, align 4
  %7 = zext i32 %6 to i64
  %8 = tail call noalias ptr @g_malloc(i64 noundef %7) #15
  %9 = getelementptr inbounds nuw i8, ptr %0, i64 40
  store ptr %8, ptr %9, align 8
  %10 = getelementptr inbounds nuw i8, ptr %0, i64 48
  store i32 %6, ptr %10, align 8
  %11 = load i32, ptr %2, align 8
  %12 = getelementptr inbounds nuw i8, ptr %0, i64 24
  %13 = load ptr, ptr %12, align 8
  %14 = getelementptr inbounds nuw i8, ptr %0, i64 32
  %15 = load i32, ptr %14, align 8
  %16 = getelementptr inbounds nuw i8, ptr %0, i64 96
  %17 = load ptr, ptr %16, align 8
  %18 = getelementptr inbounds nuw i8, ptr %0, i64 104
  %19 = load i32, ptr %18, align 8
  tail call fastcc void @snmp_usm_password_to_key(i32 noundef %11, ptr noundef %13, i32 noundef %15, ptr noundef %17, i32 noundef %19, ptr noundef %8)
  %20 = getelementptr inbounds nuw i8, ptr %0, i64 116
  %21 = load i32, ptr %20, align 4
  %.off = add i32 %21, -1
  %switch = icmp ult i32 %.off, 3
  br i1 %switch, label %22, label %47

22:                                               ; preds = %1
  %switch.selectcmp = icmp eq i32 %21, 2
  %switch.select = select i1 %switch.selectcmp, i32 24, i32 32
  %switch.selectcmp56 = icmp eq i32 %21, 1
  %switch.select57 = select i1 %switch.selectcmp56, i32 16, i32 %switch.select
  br label %23

23:                                               ; preds = %23, %22
  %.0 = phi i32 [ %6, %22 ], [ %25, %23 ]
  %24 = icmp ult i32 %.0, %switch.select57
  %25 = add i32 %.0, %6
  br i1 %24, label %23, label %26, !llvm.loop !19

26:                                               ; preds = %23
  %27 = zext i32 %.0 to i64
  %28 = tail call noalias ptr @g_malloc(i64 noundef %27) #15
  %29 = getelementptr inbounds nuw i8, ptr %0, i64 80
  store ptr %28, ptr %29, align 8
  %30 = getelementptr inbounds nuw i8, ptr %0, i64 88
  store i32 %switch.select57, ptr %30, align 8
  %31 = load i32, ptr %2, align 8
  %32 = getelementptr inbounds nuw i8, ptr %0, i64 64
  %33 = load ptr, ptr %32, align 8
  %34 = getelementptr inbounds nuw i8, ptr %0, i64 72
  %35 = load i32, ptr %34, align 8
  %36 = load ptr, ptr %16, align 8
  %37 = load i32, ptr %18, align 8
  tail call fastcc void @snmp_usm_password_to_key(i32 noundef %31, ptr noundef %33, i32 noundef %35, ptr noundef %36, i32 noundef %37, ptr noundef %28)
  %38 = icmp ult i32 %6, %switch.select57
  br i1 %38, label %.lr.ph, label %.loopexit

.lr.ph:                                           ; preds = %26, %.lr.ph
  %.158 = phi i32 [ %45, %.lr.ph ], [ %6, %26 ]
  %39 = load i32, ptr %2, align 8
  %40 = load ptr, ptr %29, align 8
  %41 = load ptr, ptr %16, align 8
  %42 = load i32, ptr %18, align 8
  %43 = zext nneg i32 %.158 to i64
  %44 = getelementptr i8, ptr %40, i64 %43
  tail call fastcc void @snmp_usm_password_to_key(i32 noundef %39, ptr noundef %40, i32 noundef %.158, ptr noundef %41, i32 noundef %42, ptr noundef %44)
  %45 = add i32 %.158, %6
  %46 = icmp ult i32 %45, %switch.select57
  br i1 %46, label %.lr.ph, label %.loopexit, !llvm.loop !20

47:                                               ; preds = %1
  %48 = tail call noalias ptr @g_malloc(i64 noundef %7) #15
  %49 = getelementptr inbounds nuw i8, ptr %0, i64 80
  store ptr %48, ptr %49, align 8
  %50 = getelementptr inbounds nuw i8, ptr %0, i64 88
  store i32 %6, ptr %50, align 8
  %51 = load i32, ptr %2, align 8
  %52 = getelementptr inbounds nuw i8, ptr %0, i64 64
  %53 = load ptr, ptr %52, align 8
  %54 = getelementptr inbounds nuw i8, ptr %0, i64 72
  %55 = load i32, ptr %54, align 8
  %56 = load ptr, ptr %16, align 8
  %57 = load i32, ptr %18, align 8
  tail call fastcc void @snmp_usm_password_to_key(i32 noundef %51, ptr noundef %53, i32 noundef %55, ptr noundef %56, i32 noundef %57, ptr noundef %48)
  br label %.loopexit

.loopexit:                                        ; preds = %.lr.ph, %26, %47
  ret void
}